target datalayout = "e-m:e-p270:32:32-p271:32:32-p272:64:64-i64:64-i128:128-f80:128-n8:16:32:64-S128"
target triple = "x86_64-pc-linux-gnu"

%"class.pbrt::FloatTexture" = type { %"class.pbrt::TaggedPointer.138" }
%"class.pbrt::TaggedPointer.138" = type { i64 }
%class.anon.197 = type { ptr, ptr, %"class.pbrt::FloatTexture", ptr }

; Function Attrs: mustprogress nounwind uwtable
define linkonce_odr dso_local void @_ZN4pbrt13TaggedPointerIJNS_17FloatImageTextureENS_20GPUFloatImageTextureENS_15FloatMixTextureENS_24FloatDirectionMixTextureENS_18FloatScaledTextureENS_20FloatConstantTextureENS_18FloatBilerpTextureENS_24FloatCheckerboardTextureENS_16FloatDotsTextureENS_10FBmTextureENS_16FloatPtexTextureENS_19GPUFloatPtexTextureENS_12WindyTextureENS_15WrinkledTextureEEEC2ERKSF_(ptr noundef nonnull align 8 dereferenceable(8) %0, ptr noundef nonnull align 8 dereferenceable(8) %1) unnamed_addr #6 comdat align 2 {
  %3 = alloca ptr, align 8
  %4 = alloca ptr, align 8
  store ptr %0, ptr %3, align 8, !tbaa !788
  store ptr %1, ptr %4, align 8, !tbaa !788
  %5 = load ptr, ptr %3, align 8
  %6 = getelementptr inbounds nuw %"class.pbrt::TaggedPointer.138", ptr %5, i32 0, i32 0
  store i64 0, ptr %6, align 8, !tbaa !790
  %7 = load ptr, ptr %4, align 8, !tbaa !788
  %8 = getelementptr inbounds nuw %"class.pbrt::TaggedPointer.138", ptr %7, i32 0, i32 0
  %9 = load i64, ptr %8, align 8, !tbaa !790
  %10 = getelementptr inbounds nuw %"class.pbrt::TaggedPointer.138", ptr %5, i32 0, i32 0
  store i64 %9, ptr %10, align 8, !tbaa !790
  ret void
}

; Function Attrs: inlinehint mustprogress uwtable
define linkonce_odr dso_local void @_ZN4pbrt12FloatTextureC2ERKS0_(ptr noundef nonnull align 8 dereferenceable(8) %0, ptr noundef nonnull align 8 dereferenceable(8) %1) unnamed_addr #10 comdat align 2 {
  %3 = alloca ptr, align 8
  %4 = alloca ptr, align 8
  store ptr %0, ptr %3, align 8, !tbaa !437
  store ptr %1, ptr %4, align 8, !tbaa !437
  %5 = load ptr, ptr %3, align 8
  %6 = load ptr, ptr %4, align 8, !tbaa !437
  call void @_ZN4pbrt13TaggedPointerIJNS_17FloatImageTextureENS_20GPUFloatImageTextureENS_15FloatMixTextureENS_24FloatDirectionMixTextureENS_18FloatScaledTextureENS_20FloatConstantTextureENS_18FloatBilerpTextureENS_24FloatCheckerboardTextureENS_16FloatDotsTextureENS_10FBmTextureENS_16FloatPtexTextureENS_19GPUFloatPtexTextureENS_12WindyTextureENS_15WrinkledTextureEEEC2ERKSF_(ptr noundef nonnull align 8 dereferenceable(8) %5, ptr noundef nonnull align 8 dereferenceable(8) %6)
  ret void
}

; Function Attrs: inlinehint mustprogress uwtable
define internal void @"_ZZZN4pbrt5Shape6CreateERKNSt7__cxx1112basic_stringIcSt11char_traitsIcESaIcEEEPKNS_9TransformESB_bRKNS_19ParameterDictionaryERKSt3mapIS6_NS_12FloatTextureESt4lessIS6_ESaISt4pairIS7_SG_EEEPKNS_7FileLocEN4pstd3pmr21polymorphic_allocatorISt4byteEEENK3$_0clEPNS_6Point3IfEEPKNS_7Normal3IfEEPKNS_6Point2IfEEiENUliE_C2ERKS19_"(ptr noundef nonnull align 8 dereferenceable(32) %0, ptr noundef nonnull align 8 dereferenceable(32) %1) unnamed_addr #10 align 2 {
  %3 = alloca ptr, align 8
  %4 = alloca ptr, align 8
  store ptr %0, ptr %3, align 8, !tbaa !13
  store ptr %1, ptr %4, align 8, !tbaa !13
  %5 = load ptr, ptr %3, align 8
  %6 = getelementptr inbounds nuw %class.anon.197, ptr %5, i32 0, i32 0
  %7 = load ptr, ptr %4, align 8
  %8 = getelementptr inbounds nuw %class.anon.197, ptr %7, i32 0, i32 0
  call void @llvm.memcpy.p0.p0.i64(ptr align 8 %6, ptr align 8 %8, i64 16, i1 false)
  %9 = getelementptr inbounds nuw %class.anon.197, ptr %5, i32 0, i32 2
  %10 = load ptr, ptr %4, align 8, !tbaa !13
  %11 = getelementptr inbounds nuw %class.anon.197, ptr %10, i32 0, i32 2
  call void @_ZN4pbrt12FloatTextureC2ERKS0_(ptr noundef nonnull align 8 dereferenceable(8) %9, ptr noundef nonnull align 8 dereferenceable(8) %11)
  %12 = getelementptr inbounds nuw %class.anon.197, ptr %5, i32 0, i32 3
  %13 = load ptr, ptr %4, align 8, !tbaa !13
  %14 = getelementptr inbounds nuw %class.anon.197, ptr %13, i32 0, i32 3
  %15 = load ptr, ptr %14, align 8, !tbaa !967
  store ptr %15, ptr %12, align 8, !tbaa !967
  ret void
}

; Function Attrs: mustprogress uwtable
define internal void @"_ZNSt14_Function_base13_Base_managerIZZN4pbrt5Shape6CreateERKNSt7__cxx1112basic_stringIcSt11char_traitsIcESaIcEEEPKNS1_9TransformESD_bRKNS1_19ParameterDictionaryERKSt3mapIS8_NS1_12FloatTextureESt4lessIS8_ESaISt4pairIS9_SI_EEEPKNS1_7FileLocEN4pstd3pmr21polymorphic_allocatorISt4byteEEENK3$_0clEPNS1_6Point3IfEEPKNS1_7Normal3IfEEPKNS1_6Point2IfEEiEUliE_E9_M_createIRKS1B_EEvRSt9_Any_dataOT_St17integral_constantIbLb0EE"(ptr noundef nonnull align 8 dereferenceable(16) %0, ptr noundef nonnull align 8 dereferenceable(32) %1) #1 align 2 personality ptr @__gxx_personality_v0 {
  %3 = alloca ptr, align 8
  %4 = alloca ptr, align 8
  %5 = alloca ptr, align 8
  %6 = alloca i32, align 4
  store ptr %0, ptr %3, align 8, !tbaa !610
  store ptr %1, ptr %4, align 8, !tbaa !13
  %7 = call noalias noundef nonnull ptr @_Znwm(i64 noundef 32) #26
  %8 = load ptr, ptr %4, align 8, !tbaa !13
  invoke void @"_ZZZN4pbrt5Shape6CreateERKNSt7__cxx1112basic_stringIcSt11char_traitsIcESaIcEEEPKNS_9TransformESB_bRKNS_19ParameterDictionaryERKSt3mapIS6_NS_12FloatTextureESt4lessIS6_ESaISt4pairIS7_SG_EEEPKNS_7FileLocEN4pstd3pmr21polymorphic_allocatorISt4byteEEENK3$_0clEPNS_6Point3IfEEPKNS_7Normal3IfEEPKNS_6Point2IfEEiENUliE_C2ERKS19_"(ptr noundef nonnull align 8 dereferenceable(32) %7, ptr noundef nonnull align 8 dereferenceable(32) %8)
          to label %9 unwind label %12

9:                                                ; preds = %2
  %10 = load ptr, ptr %3, align 8, !tbaa !610
  %11 = call noundef nonnull align 8 dereferenceable(8) ptr @"_ZNSt9_Any_data9_M_accessIPZZN4pbrt5Shape6CreateERKNSt7__cxx1112basic_stringIcSt11char_traitsIcESaIcEEEPKNS1_9TransformESD_bRKNS1_19ParameterDictionaryERKSt3mapIS8_NS1_12FloatTextureESt4lessIS8_ESaISt4pairIS9_SI_EEEPKNS1_7FileLocEN4pstd3pmr21polymorphic_allocatorISt4byteEEENK3$_0clEPNS1_6Point3IfEEPKNS1_7Normal3IfEEPKNS1_6Point2IfEEiEUliE_EERT_v"(ptr noundef nonnull align 8 dereferenceable(16) %10) #23
  store ptr %7, ptr %11, align 8, !tbaa !13
  ret void

12:                                               ; preds = %2
  %13 = landingpad { ptr, i32 }
          cleanup
  %14 = extractvalue { ptr, i32 } %13, 0
  store ptr %14, ptr %5, align 8
  %15 = extractvalue { ptr, i32 } %13, 1
  store i32 %15, ptr %6, align 4
  call void @_ZdlPvm(ptr noundef %7, i64 noundef 32) #27
  br label %16

16:                                               ; preds = %12
  %17 = load ptr, ptr %5, align 8
  %18 = load i32, ptr %6, align 4
  %19 = insertvalue { ptr, i32 } poison, ptr %17, 0
  %20 = insertvalue { ptr, i32 } %19, i32 %18, 1
  resume { ptr, i32 } %20
}

; Function Attrs: mustprogress nounwind uwtable
define linkonce_odr dso_local noundef ptr @_ZNKSt9_Any_data9_M_accessEv(ptr noundef nonnull align 8 dereferenceable(16) %0) #6 comdat align 2 {
  %2 = alloca ptr, align 8
  store ptr %0, ptr %2, align 8, !tbaa !610
  %3 = load ptr, ptr %2, align 8
  %4 = getelementptr inbounds [16 x i8], ptr %3, i64 0, i64 0
  ret ptr %4
}

; Function Attrs: mustprogress nounwind uwtable
define internal void @"_ZNSt14_Function_base13_Base_managerIZZN4pbrt5Shape6CreateERKNSt7__cxx1112basic_stringIcSt11char_traitsIcESaIcEEEPKNS1_9TransformESD_bRKNS1_19ParameterDictionaryERKSt3mapIS8_NS1_12FloatTextureESt4lessIS8_ESaISt4pairIS9_SI_EEEPKNS1_7FileLocEN4pstd3pmr21polymorphic_allocatorISt4byteEEENK3$_0clEPNS1_6Point3IfEEPKNS1_7Normal3IfEEPKNS1_6Point2IfEEiEUliE_E10_M_destroyERSt9_Any_dataSt17integral_constantIbLb0EE"(ptr noundef nonnull align 8 dereferenceable(16) %0) #6 align 2 {
  %2 = alloca ptr, align 8
  store ptr %0, ptr %2, align 8, !tbaa !610
  %3 = load ptr, ptr %2, align 8, !tbaa !610
  %4 = call noundef nonnull align 8 dereferenceable(8) ptr @"_ZNSt9_Any_data9_M_accessIPZZN4pbrt5Shape6CreateERKNSt7__cxx1112basic_stringIcSt11char_traitsIcESaIcEEEPKNS1_9TransformESD_bRKNS1_19ParameterDictionaryERKSt3mapIS8_NS1_12FloatTextureESt4lessIS8_ESaISt4pairIS9_SI_EEEPKNS1_7FileLocEN4pstd3pmr21polymorphic_allocatorISt4byteEEENK3$_0clEPNS1_6Point3IfEEPKNS1_7Normal3IfEEPKNS1_6Point2IfEEiEUliE_EERT_v"(ptr noundef nonnull align 8 dereferenceable(16) %3) #23
  %5 = load ptr, ptr %4, align 8, !tbaa !13
  %6 = icmp eq ptr %5, null
  br i1 %6, label %8, label %7

7:                                                ; preds = %1
  call void @_ZdlPvm(ptr noundef %5, i64 noundef 32) #27
  br label %8

8:                                                ; preds = %7, %1
  ret void
}

; Function Attrs: mustprogress uwtable
define internal void @"_ZNSt14_Function_base13_Base_managerIZZN4pbrt5Shape6CreateERKNSt7__cxx1112basic_stringIcSt11char_traitsIcESaIcEEEPKNS1_9TransformESD_bRKNS1_19ParameterDictionaryERKSt3mapIS8_NS1_12FloatTextureESt4lessIS8_ESaISt4pairIS9_SI_EEEPKNS1_7FileLocEN4pstd3pmr21polymorphic_allocatorISt4byteEEENK3$_0clEPNS1_6Point3IfEEPKNS1_7Normal3IfEEPKNS1_6Point2IfEEiEUliE_E15_M_init_functorIRKS1B_EEvRSt9_Any_dataOT_"(ptr noundef nonnull align 8 dereferenceable(16) %0, ptr noundef nonnull align 8 dereferenceable(32) %1) #1 align 2 {
  %3 = alloca ptr, align 8
  %4 = alloca ptr, align 8
  store ptr %0, ptr %3, align 8, !tbaa !610
  store ptr %1, ptr %4, align 8, !tbaa !13
  %5 = load ptr, ptr %3, align 8, !tbaa !610
  %6 = load ptr, ptr %4, align 8, !tbaa !13
  call void @"_ZNSt14_Function_base13_Base_managerIZZN4pbrt5Shape6CreateERKNSt7__cxx1112basic_stringIcSt11char_traitsIcESaIcEEEPKNS1_9TransformESD_bRKNS1_19ParameterDictionaryERKSt3mapIS8_NS1_12FloatTextureESt4lessIS8_ESaISt4pairIS9_SI_EEEPKNS1_7FileLocEN4pstd3pmr21polymorphic_allocatorISt4byteEEENK3$_0clEPNS1_6Point3IfEEPKNS1_7Normal3IfEEPKNS1_6Point2IfEEiEUliE_E9_M_createIRKS1B_EEvRSt9_Any_dataOT_St17integral_constantIbLb0EE"(ptr noundef nonnull align 8 dereferenceable(16) %5, ptr noundef nonnull align 8 dereferenceable(32) %6)
  ret void
}

; Function Attrs: mustprogress nounwind uwtable
define internal noundef nonnull align 8 dereferenceable(8) ptr @"_ZNKSt9_Any_data9_M_accessIPZZN4pbrt5Shape6CreateERKNSt7__cxx1112basic_stringIcSt11char_traitsIcESaIcEEEPKNS1_9TransformESD_bRKNS1_19ParameterDictionaryERKSt3mapIS8_NS1_12FloatTextureESt4lessIS8_ESaISt4pairIS9_SI_EEEPKNS1_7FileLocEN4pstd3pmr21polymorphic_allocatorISt4byteEEENK3$_0clEPNS1_6Point3IfEEPKNS1_7Normal3IfEEPKNS1_6Point2IfEEiEUliE_EERKT_v"(ptr noundef nonnull align 8 dereferenceable(16) %0) #6 align 2 {
  %2 = alloca ptr, align 8
  store ptr %0, ptr %2, align 8, !tbaa !610
  %3 = load ptr, ptr %2, align 8
  %4 = call noundef ptr @_ZNKSt9_Any_data9_M_accessEv(ptr noundef nonnull align 8 dereferenceable(16) %3) #23
  ret ptr %4
}

; Function Attrs: mustprogress nounwind uwtable
define linkonce_odr dso_local noundef ptr @_ZNSt9_Any_data9_M_accessEv(ptr noundef nonnull align 8 dereferenceable(16) %0) #6 comdat align 2 {
  %2 = alloca ptr, align 8
  store ptr %0, ptr %2, align 8, !tbaa !610
  %3 = load ptr, ptr %2, align 8
  %4 = getelementptr inbounds [16 x i8], ptr %3, i64 0, i64 0
  ret ptr %4
}

; Function Attrs: mustprogress uwtable
define internal noundef zeroext i1 @"_ZNSt14_Function_base13_Base_managerIZZN4pbrt5Shape6CreateERKNSt7__cxx1112basic_stringIcSt11char_traitsIcESaIcEEEPKNS1_9TransformESD_bRKNS1_19ParameterDictionaryERKSt3mapIS8_NS1_12FloatTextureESt4lessIS8_ESaISt4pairIS9_SI_EEEPKNS1_7FileLocEN4pstd3pmr21polymorphic_allocatorISt4byteEEENK3$_0clEPNS1_6Point3IfEEPKNS1_7Normal3IfEEPKNS1_6Point2IfEEiEUliE_E10_M_managerERSt9_Any_dataRKS1D_St18_Manager_operation"(ptr noundef nonnull align 8 dereferenceable(16) %0, ptr noundef nonnull align 8 dereferenceable(16) %1, i32 noundef %2) #1 align 2 {
  %4 = alloca ptr, align 8
  %5 = alloca ptr, align 8
  %6 = alloca i32, align 4
  store ptr %0, ptr %4, align 8, !tbaa !610
  store ptr %1, ptr %5, align 8, !tbaa !610
  store i32 %2, ptr %6, align 4, !tbaa !612
  %7 = load i32, ptr %6, align 4, !tbaa !612
  switch i32 %7, label %22 [
    i32 0, label %8
    i32 1, label %11
    i32 2, label %16
    i32 3, label %20
  ]

8:                                                ; preds = %3
  %9 = load ptr, ptr %4, align 8, !tbaa !610
  %10 = call noundef nonnull align 8 dereferenceable(8) ptr @_ZNSt9_Any_data9_M_accessIPKSt9type_infoEERT_v(ptr noundef nonnull align 8 dereferenceable(16) %9) #23
  store ptr @"_ZTIZZN4pbrt5Shape6CreateERKNSt7__cxx1112basic_stringIcSt11char_traitsIcESaIcEEEPKNS_9TransformESB_bRKNS_19ParameterDictionaryERKSt3mapIS6_NS_12FloatTextureESt4lessIS6_ESaISt4pairIS7_SG_EEEPKNS_7FileLocEN4pstd3pmr21polymorphic_allocatorISt4byteEEENK3$_0clEPNS_6Point3IfEEPKNS_7Normal3IfEEPKNS_6Point2IfEEiEUliE_", ptr %10, align 8, !tbaa !614
  br label %22

11:                                               ; preds = %3
  %12 = load ptr, ptr %5, align 8, !tbaa !610
  %13 = call noundef ptr @"_ZNSt14_Function_base13_Base_managerIZZN4pbrt5Shape6CreateERKNSt7__cxx1112basic_stringIcSt11char_traitsIcESaIcEEEPKNS1_9TransformESD_bRKNS1_19ParameterDictionaryERKSt3mapIS8_NS1_12FloatTextureESt4lessIS8_ESaISt4pairIS9_SI_EEEPKNS1_7FileLocEN4pstd3pmr21polymorphic_allocatorISt4byteEEENK3$_0clEPNS1_6Point3IfEEPKNS1_7Normal3IfEEPKNS1_6Point2IfEEiEUliE_E14_M_get_pointerERKSt9_Any_data"(ptr noundef nonnull align 8 dereferenceable(16) %12) #23
  %14 = load ptr, ptr %4, align 8, !tbaa !610
  %15 = call noundef nonnull align 8 dereferenceable(8) ptr @"_ZNSt9_Any_data9_M_accessIPZZN4pbrt5Shape6CreateERKNSt7__cxx1112basic_stringIcSt11char_traitsIcESaIcEEEPKNS1_9TransformESD_bRKNS1_19ParameterDictionaryERKSt3mapIS8_NS1_12FloatTextureESt4lessIS8_ESaISt4pairIS9_SI_EEEPKNS1_7FileLocEN4pstd3pmr21polymorphic_allocatorISt4byteEEENK3$_0clEPNS1_6Point3IfEEPKNS1_7Normal3IfEEPKNS1_6Point2IfEEiEUliE_EERT_v"(ptr noundef nonnull align 8 dereferenceable(16) %14) #23
  store ptr %13, ptr %15, align 8, !tbaa !13
  br label %22

16:                                               ; preds = %3
  %17 = load ptr, ptr %4, align 8, !tbaa !610
  %18 = load ptr, ptr %5, align 8, !tbaa !610
  %19 = call noundef ptr @"_ZNSt14_Function_base13_Base_managerIZZN4pbrt5Shape6CreateERKNSt7__cxx1112basic_stringIcSt11char_traitsIcESaIcEEEPKNS1_9TransformESD_bRKNS1_19ParameterDictionaryERKSt3mapIS8_NS1_12FloatTextureESt4lessIS8_ESaISt4pairIS9_SI_EEEPKNS1_7FileLocEN4pstd3pmr21polymorphic_allocatorISt4byteEEENK3$_0clEPNS1_6Point3IfEEPKNS1_7Normal3IfEEPKNS1_6Point2IfEEiEUliE_E14_M_get_pointerERKSt9_Any_data"(ptr noundef nonnull align 8 dereferenceable(16) %18) #23
  call void @"_ZNSt14_Function_base13_Base_managerIZZN4pbrt5Shape6CreateERKNSt7__cxx1112basic_stringIcSt11char_traitsIcESaIcEEEPKNS1_9TransformESD_bRKNS1_19ParameterDictionaryERKSt3mapIS8_NS1_12FloatTextureESt4lessIS8_ESaISt4pairIS9_SI_EEEPKNS1_7FileLocEN4pstd3pmr21polymorphic_allocatorISt4byteEEENK3$_0clEPNS1_6Point3IfEEPKNS1_7Normal3IfEEPKNS1_6Point2IfEEiEUliE_E15_M_init_functorIRKS1B_EEvRSt9_Any_dataOT_"(ptr noundef nonnull align 8 dereferenceable(16) %17, ptr noundef nonnull align 8 dereferenceable(32) %19)
  br label %22

20:                                               ; preds = %3
  %21 = load ptr, ptr %4, align 8, !tbaa !610
  call void @"_ZNSt14_Function_base13_Base_managerIZZN4pbrt5Shape6CreateERKNSt7__cxx1112basic_stringIcSt11char_traitsIcESaIcEEEPKNS1_9TransformESD_bRKNS1_19ParameterDictionaryERKSt3mapIS8_NS1_12FloatTextureESt4lessIS8_ESaISt4pairIS9_SI_EEEPKNS1_7FileLocEN4pstd3pmr21polymorphic_allocatorISt4byteEEENK3$_0clEPNS1_6Point3IfEEPKNS1_7Normal3IfEEPKNS1_6Point2IfEEiEUliE_E10_M_destroyERSt9_Any_dataSt17integral_constantIbLb0EE"(ptr noundef nonnull align 8 dereferenceable(16) %21)
  br label %22

22:                                               ; preds = %3, %20, %16, %11, %8
  ret i1 false
}

; Function Attrs: mustprogress nounwind uwtable
define internal noundef nonnull align 8 dereferenceable(8) ptr @"_ZNSt9_Any_data9_M_accessIPZZN4pbrt5Shape6CreateERKNSt7__cxx1112basic_stringIcSt11char_traitsIcESaIcEEEPKNS1_9TransformESD_bRKNS1_19ParameterDictionaryERKSt3mapIS8_NS1_12FloatTextureESt4lessIS8_ESaISt4pairIS9_SI_EEEPKNS1_7FileLocEN4pstd3pmr21polymorphic_allocatorISt4byteEEENK3$_0clEPNS1_6Point3IfEEPKNS1_7Normal3IfEEPKNS1_6Point2IfEEiEUliE_EERT_v"(ptr noundef nonnull align 8 dereferenceable(16) %0) #6 align 2 {
  %2 = alloca ptr, align 8
  store ptr %0, ptr %2, align 8, !tbaa !610
  %3 = load ptr, ptr %2, align 8
  %4 = call noundef ptr @_ZNSt9_Any_data9_M_accessEv(ptr noundef nonnull align 8 dereferenceable(16) %3) #23
  ret ptr %4
}

; Function Attrs: mustprogress nounwind uwtable
define internal noundef ptr @"_ZNSt14_Function_base13_Base_managerIZZN4pbrt5Shape6CreateERKNSt7__cxx1112basic_stringIcSt11char_traitsIcESaIcEEEPKNS1_9TransformESD_bRKNS1_19ParameterDictionaryERKSt3mapIS8_NS1_12FloatTextureESt4lessIS8_ESaISt4pairIS9_SI_EEEPKNS1_7FileLocEN4pstd3pmr21polymorphic_allocatorISt4byteEEENK3$_0clEPNS1_6Point3IfEEPKNS1_7Normal3IfEEPKNS1_6Point2IfEEiEUliE_E14_M_get_pointerERKSt9_Any_data"(ptr noundef nonnull align 8 dereferenceable(16) %0) #6 align 2 {
  %2 = alloca ptr, align 8
  store ptr %0, ptr %2, align 8, !tbaa !610
  %3 = load ptr, ptr %2, align 8, !tbaa !610
  %4 = call noundef nonnull align 8 dereferenceable(8) ptr @"_ZNKSt9_Any_data9_M_accessIPZZN4pbrt5Shape6CreateERKNSt7__cxx1112basic_stringIcSt11char_traitsIcESaIcEEEPKNS1_9TransformESD_bRKNS1_19ParameterDictionaryERKSt3mapIS8_NS1_12FloatTextureESt4lessIS8_ESaISt4pairIS9_SI_EEEPKNS1_7FileLocEN4pstd3pmr21polymorphic_allocatorISt4byteEEENK3$_0clEPNS1_6Point3IfEEPKNS1_7Normal3IfEEPKNS1_6Point2IfEEiEUliE_EERKT_v"(ptr noundef nonnull align 8 dereferenceable(16) %3) #23
  %5 = load ptr, ptr %4, align 8, !tbaa !13
  ret ptr %5
}

; Function Attrs: mustprogress nounwind uwtable
define linkonce_odr dso_local noundef nonnull align 8 dereferenceable(8) ptr @_ZNSt9_Any_data9_M_accessIPKSt9type_infoEERT_v(ptr noundef nonnull align 8 dereferenceable(16) %0) #6 comdat align 2 {
  %2 = alloca ptr, align 8
  store ptr %0, ptr %2, align 8, !tbaa !610
  %3 = load ptr, ptr %2, align 8
  %4 = call noundef ptr @_ZNSt9_Any_data9_M_accessEv(ptr noundef nonnull align 8 dereferenceable(16) %3) #23
  ret ptr %4
}

; Function Attrs: mustprogress uwtable
define internal noundef zeroext i1 @"_ZNSt17_Function_handlerIFvlEZZN4pbrt5Shape6CreateERKNSt7__cxx1112basic_stringIcSt11char_traitsIcESaIcEEEPKNS1_9TransformESD_bRKNS1_19ParameterDictionaryERKSt3mapIS8_NS1_12FloatTextureESt4lessIS8_ESaISt4pairIS9_SI_EEEPKNS1_7FileLocEN4pstd3pmr21polymorphic_allocatorISt4byteEEENK3$_0clEPNS1_6Point3IfEEPKNS1_7Normal3IfEEPKNS1_6Point2IfEEiEUliE_E10_M_managerERSt9_Any_dataRKS1D_St18_Manager_operation"(ptr noundef nonnull align 8 dereferenceable(16) %0, ptr noundef nonnull align 8 dereferenceable(16) %1, i32 noundef %2) #1 align 2 {
  %4 = alloca ptr, align 8
  %5 = alloca ptr, align 8
  %6 = alloca i32, align 4
  store ptr %0, ptr %4, align 8, !tbaa !610
  store ptr %1, ptr %5, align 8, !tbaa !610
  store i32 %2, ptr %6, align 4, !tbaa !612
  %7 = load i32, ptr %6, align 4, !tbaa !612
  switch i32 %7, label %16 [
    i32 0, label %8
    i32 1, label %11
  ]

8:                                                ; preds = %3
  %9 = load ptr, ptr %4, align 8, !tbaa !610
  %10 = call noundef nonnull align 8 dereferenceable(8) ptr @_ZNSt9_Any_data9_M_accessIPKSt9type_infoEERT_v(ptr noundef nonnull align 8 dereferenceable(16) %9) #23
  store ptr @"_ZTIZZN4pbrt5Shape6CreateERKNSt7__cxx1112basic_stringIcSt11char_traitsIcESaIcEEEPKNS_9TransformESB_bRKNS_19ParameterDictionaryERKSt3mapIS6_NS_12FloatTextureESt4lessIS6_ESaISt4pairIS7_SG_EEEPKNS_7FileLocEN4pstd3pmr21polymorphic_allocatorISt4byteEEENK3$_0clEPNS_6Point3IfEEPKNS_7Normal3IfEEPKNS_6Point2IfEEiEUliE_", ptr %10, align 8, !tbaa !614
  br label %21

11:                                               ; preds = %3
  %12 = load ptr, ptr %5, align 8, !tbaa !610
  %13 = call noundef ptr @"_ZNSt14_Function_base13_Base_managerIZZN4pbrt5Shape6CreateERKNSt7__cxx1112basic_stringIcSt11char_traitsIcESaIcEEEPKNS1_9TransformESD_bRKNS1_19ParameterDictionaryERKSt3mapIS8_NS1_12FloatTextureESt4lessIS8_ESaISt4pairIS9_SI_EEEPKNS1_7FileLocEN4pstd3pmr21polymorphic_allocatorISt4byteEEENK3$_0clEPNS1_6Point3IfEEPKNS1_7Normal3IfEEPKNS1_6Point2IfEEiEUliE_E14_M_get_pointerERKSt9_Any_data"(ptr noundef nonnull align 8 dereferenceable(16) %12) #23
  %14 = load ptr, ptr %4, align 8, !tbaa !610
  %15 = call noundef nonnull align 8 dereferenceable(8) ptr @"_ZNSt9_Any_data9_M_accessIPZZN4pbrt5Shape6CreateERKNSt7__cxx1112basic_stringIcSt11char_traitsIcESaIcEEEPKNS1_9TransformESD_bRKNS1_19ParameterDictionaryERKSt3mapIS8_NS1_12FloatTextureESt4lessIS8_ESaISt4pairIS9_SI_EEEPKNS1_7FileLocEN4pstd3pmr21polymorphic_allocatorISt4byteEEENK3$_0clEPNS1_6Point3IfEEPKNS1_7Normal3IfEEPKNS1_6Point2IfEEiEUliE_EERT_v"(ptr noundef nonnull align 8 dereferenceable(16) %14) #23
  store ptr %13, ptr %15, align 8, !tbaa !13
  br label %21

16:                                               ; preds = %3
  %17 = load ptr, ptr %4, align 8, !tbaa !610
  %18 = load ptr, ptr %5, align 8, !tbaa !610
  %19 = load i32, ptr %6, align 4, !tbaa !612
  %20 = call noundef zeroext i1 @"_ZNSt14_Function_base13_Base_managerIZZN4pbrt5Shape6CreateERKNSt7__cxx1112basic_stringIcSt11char_traitsIcESaIcEEEPKNS1_9TransformESD_bRKNS1_19ParameterDictionaryERKSt3mapIS8_NS1_12FloatTextureESt4lessIS8_ESaISt4pairIS9_SI_EEEPKNS1_7FileLocEN4pstd3pmr21polymorphic_allocatorISt4byteEEENK3$_0clEPNS1_6Point3IfEEPKNS1_7Normal3IfEEPKNS1_6Point2IfEEiEUliE_E10_M_managerERSt9_Any_dataRKS1D_St18_Manager_operation"(ptr noundef nonnull align 8 dereferenceable(16) %17, ptr noundef nonnull align 8 dereferenceable(16) %18, i32 noundef %19)
  br label %21

21:                                               ; preds = %16, %11, %8
  ret i1 false
}