; Function Attrs: mustprogress uwtable
define internal noundef zeroext i1 @"_ZNSt17_Function_handlerIFvlEZZN4pbrt5Shape6CreateERKNSt7__cxx1112basic_stringIcSt11char_traitsIcESaIcEEEPKNS1_9TransformESD_bRKNS1_19ParameterDictionaryERKSt3mapIS8_NS1_12FloatTextureESt4lessIS8_ESaISt4pairIS9_SI_EEEPKNS1_7FileLocEN4pstd3pmr21polymorphic_allocatorISt4byteEEENK3$_0clEPNS1_6Point3IfEEPKNS1_7Normal3IfEEPKNS1_6Point2IfEEiEUliE_E10_M_managerERSt9_Any_dataRKS1D_St18_Manager_operation"(ptr noundef nonnull align 8 captures(none) dereferenceable(16) %0, ptr noundef nonnull readonly align 8 captures(none) dereferenceable(16) %1, i32 noundef %2) #4 align 2 personality ptr @__gxx_personality_v0 {
  switch i32 %2, label %"_ZNSt14_Function_base13_Base_managerIZZN4pbrt5Shape6CreateERKNSt7__cxx1112basic_stringIcSt11char_traitsIcESaIcEEEPKNS1_9TransformESD_bRKNS1_19ParameterDictionaryERKSt3mapIS8_NS1_12FloatTextureESt4lessIS8_ESaISt4pairIS9_SI_EEEPKNS1_7FileLocEN4pstd3pmr21polymorphic_allocatorISt4byteEEENK3$_0clEPNS1_6Point3IfEEPKNS1_7Normal3IfEEPKNS1_6Point2IfEEiEUliE_E10_M_managerERSt9_Any_dataRKS1D_St18_Manager_operation.exit" [
    i32 0, label %4
    i32 1, label %5
    i32 3, label %14
    i32 2, label %6
  ]

4:                                                ; preds = %3
  store ptr @"_ZTIZZN4pbrt5Shape6CreateERKNSt7__cxx1112basic_stringIcSt11char_traitsIcESaIcEEEPKNS_9TransformESB_bRKNS_19ParameterDictionaryERKSt3mapIS6_NS_12FloatTextureESt4lessIS6_ESaISt4pairIS7_SG_EEEPKNS_7FileLocEN4pstd3pmr21polymorphic_allocatorISt4byteEEENK3$_0clEPNS_6Point3IfEEPKNS_7Normal3IfEEPKNS_6Point2IfEEiEUliE_", ptr %0, align 8, !tbaa !640
  br label %"_ZNSt14_Function_base13_Base_managerIZZN4pbrt5Shape6CreateERKNSt7__cxx1112basic_stringIcSt11char_traitsIcESaIcEEEPKNS1_9TransformESD_bRKNS1_19ParameterDictionaryERKSt3mapIS8_NS1_12FloatTextureESt4lessIS8_ESaISt4pairIS9_SI_EEEPKNS1_7FileLocEN4pstd3pmr21polymorphic_allocatorISt4byteEEENK3$_0clEPNS1_6Point3IfEEPKNS1_7Normal3IfEEPKNS1_6Point2IfEEiEUliE_E10_M_managerERSt9_Any_dataRKS1D_St18_Manager_operation.exit"

5:                                                ; preds = %3
  %.val = load ptr, ptr %1, align 8, !tbaa !449
  store ptr %.val, ptr %0, align 8, !tbaa !449
  br label %"_ZNSt14_Function_base13_Base_managerIZZN4pbrt5Shape6CreateERKNSt7__cxx1112basic_stringIcSt11char_traitsIcESaIcEEEPKNS1_9TransformESD_bRKNS1_19ParameterDictionaryERKSt3mapIS8_NS1_12FloatTextureESt4lessIS8_ESaISt4pairIS9_SI_EEEPKNS1_7FileLocEN4pstd3pmr21polymorphic_allocatorISt4byteEEENK3$_0clEPNS1_6Point3IfEEPKNS1_7Normal3IfEEPKNS1_6Point2IfEEiEUliE_E10_M_managerERSt9_Any_dataRKS1D_St18_Manager_operation.exit"

6:                                                ; preds = %3
  %.val6 = load ptr, ptr %1, align 8
  %7 = tail call noalias noundef nonnull dereferenceable(32) ptr @_Znwm(i64 noundef 32) #35
  tail call void @llvm.memcpy.p0.p0.i64(ptr noundef nonnull align 8 dereferenceable(32) %7, ptr noundef nonnull readonly align 8 dereferenceable(32) %.val6, i64 16, i1 false)
  %8 = getelementptr inbounds nuw i8, ptr %7, i64 16
  %9 = getelementptr inbounds nuw i8, ptr %.val6, i64 16
  %10 = load i64, ptr %9, align 8, !tbaa !412
  store i64 %10, ptr %8, align 8, !tbaa !412
  %11 = getelementptr inbounds nuw i8, ptr %7, i64 24
  %12 = getelementptr inbounds nuw i8, ptr %.val6, i64 24
  %13 = load ptr, ptr %12, align 8, !tbaa !446
  store ptr %13, ptr %11, align 8, !tbaa !446
  store ptr %7, ptr %0, align 8, !tbaa !449
  br label %"_ZNSt14_Function_base13_Base_managerIZZN4pbrt5Shape6CreateERKNSt7__cxx1112basic_stringIcSt11char_traitsIcESaIcEEEPKNS1_9TransformESD_bRKNS1_19ParameterDictionaryERKSt3mapIS8_NS1_12FloatTextureESt4lessIS8_ESaISt4pairIS9_SI_EEEPKNS1_7FileLocEN4pstd3pmr21polymorphic_allocatorISt4byteEEENK3$_0clEPNS1_6Point3IfEEPKNS1_7Normal3IfEEPKNS1_6Point2IfEEiEUliE_E10_M_managerERSt9_Any_dataRKS1D_St18_Manager_operation.exit"

14:                                               ; preds = %3
  %.val7.i = load ptr, ptr %0, align 8, !tbaa !449
  %15 = icmp eq ptr %.val7.i, null
  br i1 %15, label %"_ZNSt14_Function_base13_Base_managerIZZN4pbrt5Shape6CreateERKNSt7__cxx1112basic_stringIcSt11char_traitsIcESaIcEEEPKNS1_9TransformESD_bRKNS1_19ParameterDictionaryERKSt3mapIS8_NS1_12FloatTextureESt4lessIS8_ESaISt4pairIS9_SI_EEEPKNS1_7FileLocEN4pstd3pmr21polymorphic_allocatorISt4byteEEENK3$_0clEPNS1_6Point3IfEEPKNS1_7Normal3IfEEPKNS1_6Point2IfEEiEUliE_E10_M_managerERSt9_Any_dataRKS1D_St18_Manager_operation.exit", label %16

16:                                               ; preds = %14
  tail call void @_ZdlPvm(ptr noundef nonnull %.val7.i, i64 noundef 32) #32
  br label %"_ZNSt14_Function_base13_Base_managerIZZN4pbrt5Shape6CreateERKNSt7__cxx1112basic_stringIcSt11char_traitsIcESaIcEEEPKNS1_9TransformESD_bRKNS1_19ParameterDictionaryERKSt3mapIS8_NS1_12FloatTextureESt4lessIS8_ESaISt4pairIS9_SI_EEEPKNS1_7FileLocEN4pstd3pmr21polymorphic_allocatorISt4byteEEENK3$_0clEPNS1_6Point3IfEEPKNS1_7Normal3IfEEPKNS1_6Point2IfEEiEUliE_E10_M_managerERSt9_Any_dataRKS1D_St18_Manager_operation.exit"

"_ZNSt14_Function_base13_Base_managerIZZN4pbrt5Shape6CreateERKNSt7__cxx1112basic_stringIcSt11char_traitsIcESaIcEEEPKNS1_9TransformESD_bRKNS1_19ParameterDictionaryERKSt3mapIS8_NS1_12FloatTextureESt4lessIS8_ESaISt4pairIS9_SI_EEEPKNS1_7FileLocEN4pstd3pmr21polymorphic_allocatorISt4byteEEENK3$_0clEPNS1_6Point3IfEEPKNS1_7Normal3IfEEPKNS1_6Point2IfEEiEUliE_E10_M_managerERSt9_Any_dataRKS1D_St18_Manager_operation.exit": ; preds = %3, %16, %14, %6, %5, %4
  ret i1 false
}